(lp0
(I1
I725
tp1
a(I1
I700
tp2
a(I1
I400
tp3
a(I1
I300
tp4
a(I1
I0
tp5
a(I1
I0
tp6
a(I1
I0
tp7
a(I1
I0
tp8
a(I1
I0
tp9
a(I1
I0
tp10
a(I1
I0
tp11
a(I1
I0
tp12
a(I1
I0
tp13
a(I1
I0
tp14
a(I1
I0
tp15
a(I2
I2000
tp16
a(I2
I2000
tp17
a(I2
I2000
tp18
a(I2
I2000
tp19
a(I2
I2000
tp20
a(I2
I2000
tp21
a(I2
I2000
tp22
a(I2
I2000
tp23
a(I2
I2000
tp24
a(I2
I2000
tp25
a(I2
I2000
tp26
a(I2
I2000
tp27
a(I2
I2000
tp28
a(I2
I1950
tp29
a(I3
I300
tp30
a(I3
I200
tp31
a(I3
I100
tp32
a(I3
I50
tp33
a(I3
I0
tp34
a(I3
I0
tp35
a(I3
I0
tp36
a(I3
I0
tp37
a(I3
I0
tp38
a(I3
I0
tp39
a(I3
I0
tp40
a(I3
I0
tp41
a(I3
I0
tp42
a(I3
I0
tp43
a(I4
I2000
tp44
a(I4
I2000
tp45
a(I4
I2000
tp46
a(I4
I2000
tp47
a(I4
I2000
tp48
a(I4
I2000
tp49
a(I4
I2000
tp50
a(I4
I2000
tp51
a(I4
I2000
tp52
a(I4
I2000
tp53
a(I4
I2000
tp54
a(I4
I2000
tp55
a(I4
I2000
tp56
a(I4
I1950
tp57
a(I5
I300
tp58
a(I5
I200
tp59
a(I5
I100
tp60
a(I5
I50
tp61
a(I5
I0
tp62
a(I5
I0
tp63
a(I5
I0
tp64
a(I5
I0
tp65
a(I5
I0
tp66
a(I5
I0
tp67
a(I5
I0
tp68
a(I5
I0
tp69
a(I5
I0
tp70
a(I5
I0
tp71
a(I6
I2000
tp72
a(I6
I2000
tp73
a(I6
I2000
tp74
a(I6
I2000
tp75
a(I6
I2000
tp76
a(I6
I2000
tp77
a(I6
I2000
tp78
a(I6
I2000
tp79
a(I6
I2000
tp80
a(I6
I2000
tp81
a(I6
I2000
tp82
a(I6
I2000
tp83
a(I6
I2000
tp84
a(I6
I1950
tp85
a(I7
I200
tp86
a(I7
I50
tp87
a(I7
I0
tp88
a(I7
I0
tp89
a(I7
I0
tp90
a(I7
I0
tp91
a(I7
I0
tp92
a(I7
I0
tp93
a(I7
I0
tp94
a(I7
I0
tp95
a(I7
I0
tp96
a(I7
I0
tp97
a(I7
I0
tp98
a(I7
I0
tp99
a(I8
I2000
tp100
a(I8
I2000
tp101
a(I8
I2000
tp102
a(I8
I2000
tp103
a(I8
I2000
tp104
a(I8
I2000
tp105
a(I8
I2000
tp106
a(I8
I2000
tp107
a(I8
I2000
tp108
a(I8
I2000
tp109
a(I8
I2000
tp110
a(I8
I2000
tp111
a(I8
I2000
tp112
a(I8
I1950
tp113
a(I9
I644
tp114
a(I9
I200
tp115
a(I9
I200
tp116
a(I9
I100
tp117
a(I9
I100
tp118
a(I9
I50
tp119
a(I9
I0
tp120
a(I9
I0
tp121
a(I9
I0
tp122
a(I9
I0
tp123
a(I9
I0
tp124
a(I9
I0
tp125
a(I9
I0
tp126
a(I9
I0
tp127
a(I10
I2000
tp128
a(I10
I2000
tp129
a(I10
I2000
tp130
a(I10
I2000
tp131
a(I10
I2000
tp132
a(I10
I2000
tp133
a(I10
I2000
tp134
a(I10
I2000
tp135
a(I10
I2000
tp136
a(I10
I2000
tp137
a(I10
I2000
tp138
a(I10
I2000
tp139
a(I10
I2000
tp140
a(I10
I1950
tp141
a(I10
I700
tp142
a(I11
I2000
tp143
a(I11
I350
tp144
a(I11
I300
tp145
a(I11
I100
tp146
a(I11
I100
tp147
a(I11
I50
tp148
a(I11
I0
tp149
a(I11
I0
tp150
a(I11
I0
tp151
a(I11
I0
tp152
a(I11
I0
tp153
a(I11
I0
tp154
a(I11
I0
tp155
a(I11
I0
tp156
a(I11
I0
tp157
a(I11
I2000
tp158
a(I11
I350
tp159
a(I11
I300
tp160
a(I11
I100
tp161
a(I11
I100
tp162
a(I11
I50
tp163
a(I11
I0
tp164
a(I11
I0
tp165
a(I11
I0
tp166
a(I11
I0
tp167
a(I11
I0
tp168
a(I11
I0
tp169
a(I11
I0
tp170
a(I11
I0
tp171
a(I11
I2000
tp172
a(I11
I350
tp173
a(I11
I300
tp174
a(I11
I100
tp175
a(I11
I100
tp176
a(I11
I50
tp177
a(I11
I0
tp178
a(I11
I0
tp179
a(I11
I0
tp180
a(I11
I0
tp181
a(I11
I0
tp182
a(I11
I0
tp183
a(I11
I0
tp184
a(I11
I2000
tp185
a(I11
I350
tp186
a(I11
I300
tp187
a(I11
I100
tp188
a(I11
I100
tp189
a(I11
I50
tp190
a(I11
I0
tp191
a(I11
I0
tp192
a(I11
I0
tp193
a(I11
I0
tp194
a(I11
I0
tp195
a(I11
I0
tp196
a(I11
I2000
tp197
a(I11
I350
tp198
a(I11
I300
tp199
a(I11
I100
tp200
a(I11
I50
tp201
a(I11
I0
tp202
a(I11
I0
tp203
a(I11
I0
tp204
a(I11
I0
tp205
a(I11
I0
tp206
a(I11
I0
tp207
a(I11
I2000
tp208
a(I11
I350
tp209
a(I11
I300
tp210
a(I11
I100
tp211
a(I11
I50
tp212
a(I11
I0
tp213
a(I11
I0
tp214
a(I11
I0
tp215
a(I11
I0
tp216
a(I11
I0
tp217
a(I11
I2000
tp218
a(I11
I300
tp219
a(I11
I100
tp220
a(I11
I50
tp221
a(I11
I0
tp222
a(I11
I0
tp223
a(I11
I0
tp224
a(I11
I0
tp225
a(I11
I0
tp226
a(I11
I2000
tp227
a(I11
I300
tp228
a(I11
I100
tp229
a(I11
I50
tp230
a(I11
I0
tp231
a(I11
I0
tp232
a(I11
I0
tp233
a(I11
I0
tp234
a(I11
I2000
tp235
a(I11
I300
tp236
a(I11
I50
tp237
a(I11
I0
tp238
a(I11
I0
tp239
a(I11
I0
tp240
a(I11
I0
tp241
a(I11
I2000
tp242
a(I11
I300
tp243
a(I11
I50
tp244
a(I11
I0
tp245
a(I11
I0
tp246
a(I11
I0
tp247
a(I11
I2000
tp248
a(I11
I300
tp249
a(I11
I50
tp250
a(I11
I0
tp251
a(I11
I0
tp252
a(I11
I2000
tp253
a(I11
I300
tp254
a(I11
I50
tp255
a(I11
I0
tp256
a(I11
I1950
tp257
a(I11
I250
tp258
a(I11
I0
tp259
a(I12
I1893
tp260
a(I12
I1903
tp261
a(I12
I1835
tp262
a(I12
I1800
tp263
a(I12
I1800
tp264
a(I12
I1800
tp265
a(I12
I1800
tp266
a(I12
I1800
tp267
a(I12
I1800
tp268
a(I12
I1800
tp269
a(I12
I1800
tp270
a(I12
I1800
tp271
a(I12
I1800
tp272
a.